; Function Attrs: nounwind uwtable
define internal fastcc i32 @ftp_state_rest(ptr noundef %0, ptr noundef %1) unnamed_addr #0 {
  %3 = getelementptr inbounds nuw i8, ptr %0, i64 432
  %4 = load ptr, ptr %3, align 8, !tbaa !21
  %5 = getelementptr inbounds nuw i8, ptr %1, i64 1056
  %6 = getelementptr inbounds nuw i8, ptr %4, i64 16
  %7 = load i32, ptr %6, align 8, !tbaa !97
  %.not = icmp eq i32 %7, 0
  br i1 %.not, label %36, label %8

8:                                                ; preds = %2
  %9 = getelementptr inbounds nuw i8, ptr %1, i64 1240
  %10 = load ptr, ptr %9, align 8, !tbaa !145
  %.not10 = icmp eq ptr %10, null
  br i1 %.not10, label %36, label %11

11:                                               ; preds = %8
  %12 = tail call i32 (ptr, ptr, ptr, ...) @Curl_pp_sendf(ptr noundef nonnull %0, ptr noundef nonnull %5, ptr noundef nonnull @.str.88, i32 noundef 0) #10
  %.not11 = icmp eq i32 %12, 0
  br i1 %.not11, label %13, label %38

13:                                               ; preds = %11
  %14 = getelementptr inbounds nuw i8, ptr %0, i64 24
  %15 = load ptr, ptr %14, align 8, !tbaa !107
  %16 = getelementptr inbounds nuw i8, ptr %15, i64 1326
  %17 = load i8, ptr %16, align 2, !tbaa !138
  %.not12 = icmp eq i8 %17, 26
  br i1 %.not12, label %_ftp_state.exit, label %18

18:                                               ; preds = %13
  %19 = getelementptr inbounds nuw i8, ptr %0, i64 2562
  %20 = load i64, ptr %19, align 2
  %21 = and i64 %20, 134217728
  %.not.i = icmp eq i64 %21, 0
  br i1 %.not.i, label %_ftp_state.exit, label %22

22:                                               ; preds = %18
  %23 = getelementptr inbounds nuw i8, ptr %0, i64 4712
  %24 = load ptr, ptr %23, align 8, !tbaa !104
  %.not20.i = icmp eq ptr %24, null
  br i1 %.not20.i, label %31, label %25

25:                                               ; preds = %22
  %26 = getelementptr inbounds nuw i8, ptr %24, i64 8
  %27 = load i32, ptr %26, align 8, !tbaa !105
  %28 = icmp sgt i32 %27, 0
  %29 = load i32, ptr getelementptr inbounds nuw (i8, ptr @Curl_trc_feat_ftp, i64 8), align 8
  %30 = icmp sgt i32 %29, 0
  %or.cond.i = select i1 %28, i1 %30, i1 false
  br i1 %or.cond.i, label %32, label %_ftp_state.exit

31:                                               ; preds = %22
  %.old.i = load i32, ptr getelementptr inbounds nuw (i8, ptr @Curl_trc_feat_ftp, i64 8), align 8, !tbaa !105
  %.old1.i = icmp sgt i32 %.old.i, 0
  br i1 %.old1.i, label %32, label %_ftp_state.exit

32:                                               ; preds = %31, %25
  %33 = zext i8 %17 to i64
  %34 = getelementptr inbounds nuw [35 x ptr], ptr @ftp_state_names, i64 0, i64 %33
  %35 = load ptr, ptr %34, align 8, !tbaa !8
  tail call void (ptr, ptr, ...) @Curl_trc_ftp(ptr noundef nonnull %0, ptr noundef nonnull @.str.7, ptr noundef %35, ptr noundef nonnull @.str.35) #10
  br label %_ftp_state.exit

_ftp_state.exit:                                  ; preds = %13, %18, %25, %31, %32
  store i8 26, ptr %16, align 2, !tbaa !138
  br label %38

36:                                               ; preds = %8, %2
  %37 = tail call fastcc i32 @ftp_state_prepare_transfer(ptr noundef nonnull %0)
  br label %38

38:                                               ; preds = %11, %_ftp_state.exit, %36
  %.0 = phi i32 [ %12, %11 ], [ 0, %_ftp_state.exit ], [ %37, %36 ]
  ret i32 %.0
}